target datalayout = "e-m:e-p270:32:32-p271:32:32-p272:64:64-i64:64-i128:128-f80:128-n8:16:32:64-S128"
target triple = "x86_64-pc-linux-gnu"

%struct.RelationData = type { %struct.RelFileLocator, ptr, i32, i32, i8, i8, i8, i8, i8, i32, i32, i32, i32, ptr, ptr, i32, %struct.LockInfoData, ptr, ptr, ptr, ptr, ptr, i8, ptr, ptr, ptr, ptr, ptr, ptr, i32, ptr, i8, ptr, ptr, i32, i8, i32, ptr, i8, ptr, ptr, ptr, ptr, ptr, ptr, ptr, i32, ptr, ptr, ptr, ptr, ptr, ptr, ptr, ptr, ptr, ptr, ptr, ptr, ptr, ptr, ptr, ptr, ptr, ptr, ptr, i32, i8, ptr }
%struct.RelFileLocator = type { i32, i32, i32 }
%struct.LockInfoData = type { %struct.LockRelId }
%struct.LockRelId = type { i32, i32 }
%struct.LOCKTAG = type { i32, i32, i32, i16, i8, i8 }

; Function Attrs: nounwind uwtable
define dso_local zeroext i1 @ConditionalLockRelation(ptr noundef %0, i32 noundef %1) #0 {
  %3 = alloca i1, align 1
  %4 = alloca ptr, align 8
  %5 = alloca i32, align 4
  %6 = alloca %struct.LOCKTAG, align 4
  %7 = alloca ptr, align 8
  %8 = alloca i32, align 4
  %9 = alloca i32, align 4
  store ptr %0, ptr %4, align 8
  store i32 %1, ptr %5, align 4
  call void @llvm.lifetime.start.p0(i64 16, ptr %6) #6
  call void @llvm.lifetime.start.p0(i64 8, ptr %7) #6
  call void @llvm.lifetime.start.p0(i64 4, ptr %8) #6
  %10 = load ptr, ptr %4, align 8
  %11 = getelementptr inbounds nuw %struct.RelationData, ptr %10, i32 0, i32 16
  %12 = getelementptr inbounds nuw %struct.LockInfoData, ptr %11, i32 0, i32 0
  %13 = getelementptr inbounds nuw %struct.LockRelId, ptr %12, i32 0, i32 1
  %14 = load i32, ptr %13, align 4
  %15 = getelementptr inbounds nuw %struct.LOCKTAG, ptr %6, i32 0, i32 0
  store i32 %14, ptr %15, align 4
  %16 = load ptr, ptr %4, align 8
  %17 = getelementptr inbounds nuw %struct.RelationData, ptr %16, i32 0, i32 16
  %18 = getelementptr inbounds nuw %struct.LockInfoData, ptr %17, i32 0, i32 0
  %19 = getelementptr inbounds nuw %struct.LockRelId, ptr %18, i32 0, i32 0
  %20 = load i32, ptr %19, align 4
  %21 = getelementptr inbounds nuw %struct.LOCKTAG, ptr %6, i32 0, i32 1
  store i32 %20, ptr %21, align 4
  %22 = getelementptr inbounds nuw %struct.LOCKTAG, ptr %6, i32 0, i32 2
  store i32 0, ptr %22, align 4
  %23 = getelementptr inbounds nuw %struct.LOCKTAG, ptr %6, i32 0, i32 3
  store i16 0, ptr %23, align 4
  %24 = getelementptr inbounds nuw %struct.LOCKTAG, ptr %6, i32 0, i32 4
  store i8 0, ptr %24, align 2
  %25 = getelementptr inbounds nuw %struct.LOCKTAG, ptr %6, i32 0, i32 5
  store i8 1, ptr %25, align 1
  %26 = load i32, ptr %5, align 4
  %27 = call i32 @LockAcquireExtended(ptr noundef %6, i32 noundef %26, i1 noundef zeroext false, i1 noundef zeroext true, i1 noundef zeroext true, ptr noundef %7)
  store i32 %27, ptr %8, align 4
  %28 = load i32, ptr %8, align 4
  %29 = icmp eq i32 %28, 0
  br i1 %29, label %30, label %31

30:                                               ; preds = %2
  store i1 false, ptr %3, align 1
  store i32 1, ptr %9, align 4
  br label %37

31:                                               ; preds = %2
  %32 = load i32, ptr %8, align 4
  %33 = icmp ne i32 %32, 3
  br i1 %33, label %34, label %36

34:                                               ; preds = %31
  call void @AcceptInvalidationMessages()
  %35 = load ptr, ptr %7, align 8
  call void @MarkLockClear(ptr noundef %35)
  br label %36

36:                                               ; preds = %34, %31
  store i1 true, ptr %3, align 1
  store i32 1, ptr %9, align 4
  br label %37

37:                                               ; preds = %36, %30
  call void @llvm.lifetime.end.p0(i64 4, ptr %8) #6
  call void @llvm.lifetime.end.p0(i64 8, ptr %7) #6
  call void @llvm.lifetime.end.p0(i64 16, ptr %6) #6
  %38 = load i1, ptr %3, align 1
  ret i1 %38
}